; Function Attrs: mustprogress uwtable
define noundef double @_ZNK8QuantLib27ProbabilityOfAtLeastNEventsclESt6vectorIdSaIdEE(ptr nocapture noundef nonnull readonly align 8 dereferenceable(8) %this, ptr nocapture noundef nonnull readonly %p) local_unnamed_addr #3 align 2 personality ptr @__gxx_personality_v0 {
entry:
  %probability.i = alloca %"class.std::vector", align 8
  %0 = load i64, ptr %this, align 8, !tbaa !34
  %conv = trunc i64 %0 to i32
  call void @llvm.lifetime.start.p0(i64 24, ptr nonnull %probability.i) #20
  call void @_ZN8QuantLib8LossDist20probabilityOfNEventsERSt6vectorIdSaIdEE(ptr dead_on_unwind nonnull writable sret(%"class.std::vector") align 8 %probability.i, ptr noundef nonnull readonly align 8 dereferenceable(24) %p)
  %cmp4.i = icmp sgt i32 %conv, 0
  %.pre.i = load ptr, ptr %probability.i, align 8, !tbaa !3
  br i1 %cmp4.i, label %for.body.lr.ph.i, label %for.cond.cleanup.i

for.body.lr.ph.i:                                 ; preds = %entry
  %wide.trip.count.i = and i64 %0, 2147483647
  br label %for.body.i

for.cond.cleanup.i:                               ; preds = %entry
  %tobool.not.i.i.i.i = icmp eq ptr %.pre.i, null
  br i1 %tobool.not.i.i.i.i, label %_ZN8QuantLib8LossDist27probabilityOfAtLeastNEventsEiRSt6vectorIdSaIdEE.exit, label %if.then.i.i.i.i

if.then.i.i.i.i:                                  ; preds = %for.body.i, %for.cond.cleanup.i
  %sum.0.lcssa10.i = phi double [ 1.000000e+00, %for.cond.cleanup.i ], [ %sub.i, %for.body.i ]
  %_M_end_of_storage.i.i.i = getelementptr inbounds nuw i8, ptr %probability.i, i64 16
  %1 = load ptr, ptr %_M_end_of_storage.i.i.i, align 8, !tbaa !26
  %sub.ptr.lhs.cast.i.i.i = ptrtoint ptr %1 to i64
  %sub.ptr.rhs.cast.i.i.i = ptrtoint ptr %.pre.i to i64
  %sub.ptr.sub.i.i.i = sub i64 %sub.ptr.lhs.cast.i.i.i, %sub.ptr.rhs.cast.i.i.i
  tail call void @_ZdlPvm(ptr noundef nonnull %.pre.i, i64 noundef %sub.ptr.sub.i.i.i) #23
  br label %_ZN8QuantLib8LossDist27probabilityOfAtLeastNEventsEiRSt6vectorIdSaIdEE.exit

for.body.i:                                       ; preds = %for.body.i, %for.body.lr.ph.i
  %indvars.iv.i = phi i64 [ 0, %for.body.lr.ph.i ], [ %indvars.iv.next.i, %for.body.i ]
  %sum.05.i = phi double [ 1.000000e+00, %for.body.lr.ph.i ], [ %sub.i, %for.body.i ]
  %add.ptr.i.i = getelementptr inbounds nuw double, ptr %.pre.i, i64 %indvars.iv.i
  %2 = load double, ptr %add.ptr.i.i, align 8, !tbaa !8
  %sub.i = fsub double %sum.05.i, %2
  %indvars.iv.next.i = add nuw nsw i64 %indvars.iv.i, 1
  %exitcond.not.i = icmp eq i64 %indvars.iv.next.i, %wide.trip.count.i
  br i1 %exitcond.not.i, label %if.then.i.i.i.i, label %for.body.i, !llvm.loop !31

_ZN8QuantLib8LossDist27probabilityOfAtLeastNEventsEiRSt6vectorIdSaIdEE.exit: ; preds = %for.cond.cleanup.i, %if.then.i.i.i.i
  %sum.0.lcssa11.i = phi double [ 1.000000e+00, %for.cond.cleanup.i ], [ %sum.0.lcssa10.i, %if.then.i.i.i.i ]
  call void @llvm.lifetime.end.p0(i64 24, ptr nonnull %probability.i) #20
  ret double %sum.0.lcssa11.i
}